target datalayout = "e-m:e-p270:32:32-p271:32:32-p272:64:64-i64:64-i128:128-f80:128-n8:16:32:64-S128"
target triple = "x86_64-pc-linux-gnu"

%struct.lua_State = type { i8, i8, i8, i8, i8, i8, i8, ptr, ptr, ptr, ptr, ptr, ptr, ptr, ptr, i32, i32, i16, i16, i32, ptr, ptr, ptr, ptr, ptr }
%struct.UpVal = type { i8, i8, i8, i8, ptr, %union.anon }
%union.anon = type { %struct.anon }
%struct.anon = type { ptr, ptr, ptr }

; Function Attrs: mustprogress uwtable
define hidden void @_Z15luaF_closeupvalP9lua_StateP5UpValb(ptr noundef %0, ptr noundef %1, i1 noundef zeroext %2) #0 {
  %4 = alloca ptr, align 8
  %5 = alloca ptr, align 8
  %6 = alloca i8, align 1
  %7 = alloca ptr, align 8
  %8 = alloca ptr, align 8
  store ptr %0, ptr %4, align 8, !tbaa !4
  store ptr %1, ptr %5, align 8, !tbaa !97
  %9 = zext i1 %2 to i8
  store i8 %9, ptr %6, align 1, !tbaa !108
  %10 = load ptr, ptr %5, align 8, !tbaa !97
  %11 = getelementptr inbounds nuw %struct.UpVal, ptr %10, i32 0, i32 5
  %12 = getelementptr inbounds nuw %struct.anon, ptr %11, i32 0, i32 0
  %13 = load ptr, ptr %12, align 8, !tbaa !90
  %14 = load ptr, ptr %5, align 8, !tbaa !97
  %15 = getelementptr inbounds nuw %struct.UpVal, ptr %14, i32 0, i32 5
  %16 = getelementptr inbounds nuw %struct.anon, ptr %15, i32 0, i32 1
  %17 = load ptr, ptr %16, align 8, !tbaa !90
  %18 = getelementptr inbounds nuw %struct.UpVal, ptr %17, i32 0, i32 5
  %19 = getelementptr inbounds nuw %struct.anon, ptr %18, i32 0, i32 0
  store ptr %13, ptr %19, align 8, !tbaa !90
  %20 = load ptr, ptr %5, align 8, !tbaa !97
  %21 = getelementptr inbounds nuw %struct.UpVal, ptr %20, i32 0, i32 5
  %22 = getelementptr inbounds nuw %struct.anon, ptr %21, i32 0, i32 1
  %23 = load ptr, ptr %22, align 8, !tbaa !90
  %24 = load ptr, ptr %5, align 8, !tbaa !97
  %25 = getelementptr inbounds nuw %struct.UpVal, ptr %24, i32 0, i32 5
  %26 = getelementptr inbounds nuw %struct.anon, ptr %25, i32 0, i32 0
  %27 = load ptr, ptr %26, align 8, !tbaa !90
  %28 = getelementptr inbounds nuw %struct.UpVal, ptr %27, i32 0, i32 5
  %29 = getelementptr inbounds nuw %struct.anon, ptr %28, i32 0, i32 1
  store ptr %23, ptr %29, align 8, !tbaa !90
  %30 = load i8, ptr %6, align 1, !tbaa !108, !range !109, !noundef !110
  %31 = trunc i8 %30 to i1
  br i1 %31, label %32, label %33

32:                                               ; preds = %3
  br label %47

33:                                               ; preds = %3
  call void @llvm.lifetime.start.p0(i64 8, ptr %7) #5
  %34 = load ptr, ptr %5, align 8, !tbaa !97
  %35 = getelementptr inbounds nuw %struct.UpVal, ptr %34, i32 0, i32 4
  %36 = load ptr, ptr %35, align 8, !tbaa !98
  store ptr %36, ptr %7, align 8, !tbaa !93
  call void @llvm.lifetime.start.p0(i64 8, ptr %8) #5
  %37 = load ptr, ptr %5, align 8, !tbaa !97
  %38 = getelementptr inbounds nuw %struct.UpVal, ptr %37, i32 0, i32 5
  store ptr %38, ptr %8, align 8, !tbaa !93
  %39 = load ptr, ptr %7, align 8, !tbaa !93
  %40 = load ptr, ptr %8, align 8, !tbaa !93
  call void @llvm.memcpy.p0.p0.i64(ptr align 8 %40, ptr align 8 %39, i64 16, i1 false), !tbaa.struct !111
  call void @llvm.lifetime.end.p0(i64 8, ptr %8) #5
  call void @llvm.lifetime.end.p0(i64 8, ptr %7) #5
  %41 = load ptr, ptr %5, align 8, !tbaa !97
  %42 = getelementptr inbounds nuw %struct.UpVal, ptr %41, i32 0, i32 5
  %43 = load ptr, ptr %5, align 8, !tbaa !97
  %44 = getelementptr inbounds nuw %struct.UpVal, ptr %43, i32 0, i32 4
  store ptr %42, ptr %44, align 8, !tbaa !98
  %45 = load ptr, ptr %4, align 8, !tbaa !4
  %46 = load ptr, ptr %5, align 8, !tbaa !97
  call void @_Z16luaC_upvalclosedP9lua_StateP5UpVal(ptr noundef %45, ptr noundef %46)
  br label %47

47:                                               ; preds = %33, %32
  ret void
}

; Function Attrs: mustprogress uwtable
define hidden void @_Z10luaF_closeP9lua_StateP10lua_TValue(ptr noundef %0, ptr noundef %1) #0 {
  %3 = alloca ptr, align 8
  %4 = alloca ptr, align 8
  %5 = alloca ptr, align 8
  %6 = alloca ptr, align 8
  %7 = alloca ptr, align 8
  store ptr %0, ptr %3, align 8, !tbaa !4
  store ptr %1, ptr %4, align 8, !tbaa !93
  call void @llvm.lifetime.start.p0(i64 8, ptr %5) #5
  %8 = load ptr, ptr %3, align 8, !tbaa !4
  %9 = getelementptr inbounds nuw %struct.lua_State, ptr %8, i32 0, i32 9
  %10 = load ptr, ptr %9, align 8, !tbaa !23
  store ptr %10, ptr %5, align 8, !tbaa !94
  call void @llvm.lifetime.start.p0(i64 8, ptr %6) #5
  br label %11

11:                                               ; preds = %26, %2
  %12 = load ptr, ptr %3, align 8, !tbaa !4
  %13 = getelementptr inbounds nuw %struct.lua_State, ptr %12, i32 0, i32 21
  %14 = load ptr, ptr %13, align 8, !tbaa !105
  %15 = icmp ne ptr %14, null
  br i1 %15, label %16, label %24

16:                                               ; preds = %11
  %17 = load ptr, ptr %3, align 8, !tbaa !4
  %18 = getelementptr inbounds nuw %struct.lua_State, ptr %17, i32 0, i32 21
  %19 = load ptr, ptr %18, align 8, !tbaa !105
  store ptr %19, ptr %6, align 8, !tbaa !97
  %20 = getelementptr inbounds nuw %struct.UpVal, ptr %19, i32 0, i32 4
  %21 = load ptr, ptr %20, align 8, !tbaa !98
  %22 = load ptr, ptr %4, align 8, !tbaa !93
  %23 = icmp uge ptr %21, %22
  br label %24

24:                                               ; preds = %16, %11
  %25 = phi i1 [ false, %11 ], [ %23, %16 ]
  br i1 %25, label %26, label %37

26:                                               ; preds = %24
  call void @llvm.lifetime.start.p0(i64 8, ptr %7) #5
  %27 = load ptr, ptr %6, align 8, !tbaa !97
  %28 = getelementptr inbounds %struct.UpVal, ptr %27, i64 0
  store ptr %28, ptr %7, align 8, !tbaa !106
  %29 = load ptr, ptr %6, align 8, !tbaa !97
  %30 = getelementptr inbounds nuw %struct.UpVal, ptr %29, i32 0, i32 5
  %31 = getelementptr inbounds nuw %struct.anon, ptr %30, i32 0, i32 2
  %32 = load ptr, ptr %31, align 8, !tbaa !90
  %33 = load ptr, ptr %3, align 8, !tbaa !4
  %34 = getelementptr inbounds nuw %struct.lua_State, ptr %33, i32 0, i32 21
  store ptr %32, ptr %34, align 8, !tbaa !105
  %35 = load ptr, ptr %3, align 8, !tbaa !4
  %36 = load ptr, ptr %6, align 8, !tbaa !97
  call void @_Z15luaF_closeupvalP9lua_StateP5UpValb(ptr noundef %35, ptr noundef %36, i1 noundef zeroext false)
  call void @llvm.lifetime.end.p0(i64 8, ptr %7) #5
  br label %11, !llvm.loop !107

37:                                               ; preds = %24
  call void @llvm.lifetime.end.p0(i64 8, ptr %6) #5
  call void @llvm.lifetime.end.p0(i64 8, ptr %5) #5
  ret void
}