; Function Attrs: mustprogress uwtable
define hidden void @_Z10luaF_closeP9lua_StateP10lua_TValue(ptr noundef %0, ptr noundef readnone %1) local_unnamed_addr #0 {
  %3 = getelementptr inbounds nuw i8, ptr %0, i64 96
  %4 = load ptr, ptr %3, align 8, !tbaa !63
  %.not10 = icmp eq ptr %4, null
  br i1 %.not10, label %.critedge, label %.lr.ph

.lr.ph:                                           ; preds = %2, %8
  %5 = phi ptr [ %19, %8 ], [ %4, %2 ]
  %6 = getelementptr inbounds nuw i8, ptr %5, i64 8
  %7 = load ptr, ptr %6, align 8, !tbaa !57
  %.not9 = icmp ult ptr %7, %1
  br i1 %.not9, label %.critedge, label %8

8:                                                ; preds = %.lr.ph
  %9 = getelementptr inbounds nuw i8, ptr %5, i64 32
  %10 = load ptr, ptr %9, align 8, !tbaa !53
  store ptr %10, ptr %3, align 8, !tbaa !63
  %11 = getelementptr inbounds nuw i8, ptr %5, i64 16
  %12 = load ptr, ptr %11, align 8, !tbaa !53
  %13 = getelementptr inbounds nuw i8, ptr %5, i64 24
  %14 = load ptr, ptr %13, align 8, !tbaa !53
  %15 = getelementptr inbounds nuw i8, ptr %14, i64 16
  store ptr %12, ptr %15, align 8, !tbaa !53
  %16 = load ptr, ptr %13, align 8, !tbaa !53
  %17 = getelementptr inbounds nuw i8, ptr %12, i64 24
  store ptr %16, ptr %17, align 8, !tbaa !53
  %18 = load ptr, ptr %6, align 8, !tbaa !57
  tail call void @llvm.memcpy.p0.p0.i64(ptr noundef nonnull align 8 dereferenceable(16) %11, ptr noundef nonnull align 8 dereferenceable(16) %18, i64 16, i1 false), !tbaa.struct !64
  store ptr %11, ptr %6, align 8, !tbaa !57
  tail call void @_Z16luaC_upvalclosedP9lua_StateP5UpVal(ptr noundef nonnull %0, ptr noundef nonnull %5)
  %19 = load ptr, ptr %3, align 8, !tbaa !63
  %.not = icmp eq ptr %19, null
  br i1 %.not, label %.critedge, label %.lr.ph, !llvm.loop !66

.critedge:                                        ; preds = %.lr.ph, %8, %2
  ret void
}